; Function Attrs: mustprogress uwtable
define internal void @_ZNSt17_Function_handlerIFvRKNSt7__cxx1112basic_stringIcSt11char_traitsIcESaIcEEEESt5_BindIFMN12_GLOBAL__N_118abc9_output_filterEFvS7_ESB_St12_PlaceholderILi1EEEEE9_M_invokeERKSt9_Any_dataS7_(ptr nocapture noundef nonnull readonly align 8 dereferenceable(16) %0, ptr noundef nonnull align 8 dereferenceable(32) %1) #3 align 2 personality ptr @__gxx_personality_v0 {
  %.val = load ptr, ptr %0, align 8
  %3 = getelementptr inbounds i8, ptr %.val, i64 16
  %.val.i.i.i.i = load i64, ptr %.val, align 8
  %4 = getelementptr inbounds i8, ptr %.val, i64 8
  %.val3.i.i.i.i = load i64, ptr %4, align 8
  %5 = getelementptr inbounds i8, ptr %3, i64 %.val3.i.i.i.i
  %6 = and i64 %.val.i.i.i.i, 1
  %.not.i.i.i.i.i.i = icmp eq i64 %6, 0
  br i1 %.not.i.i.i.i.i.i, label %12, label %7

7:                                                ; preds = %2
  %8 = load ptr, ptr %5, align 8
  %9 = getelementptr i8, ptr %8, i64 %.val.i.i.i.i
  %10 = getelementptr i8, ptr %9, i64 -1
  %11 = load ptr, ptr %10, align 8, !nosanitize !51
  br label %_ZSt10__invoke_rIvRSt5_BindIFMN12_GLOBAL__N_118abc9_output_filterEFvRKNSt7__cxx1112basic_stringIcSt11char_traitsIcESaIcEEEES2_St12_PlaceholderILi1EEEEJSA_EENSt9enable_ifIXsr6__and_ISt7is_voidIT_ESt14__is_invocableIT0_JDpT1_EEEE5valueESK_E4typeEOSN_DpOSO_.exit

12:                                               ; preds = %2
  %13 = inttoptr i64 %.val.i.i.i.i to ptr
  br label %_ZSt10__invoke_rIvRSt5_BindIFMN12_GLOBAL__N_118abc9_output_filterEFvRKNSt7__cxx1112basic_stringIcSt11char_traitsIcESaIcEEEES2_St12_PlaceholderILi1EEEEJSA_EENSt9enable_ifIXsr6__and_ISt7is_voidIT_ESt14__is_invocableIT0_JDpT1_EEEE5valueESK_E4typeEOSN_DpOSO_.exit

_ZSt10__invoke_rIvRSt5_BindIFMN12_GLOBAL__N_118abc9_output_filterEFvRKNSt7__cxx1112basic_stringIcSt11char_traitsIcESaIcEEEES2_St12_PlaceholderILi1EEEEJSA_EENSt9enable_ifIXsr6__and_ISt7is_voidIT_ESt14__is_invocableIT0_JDpT1_EEEE5valueESK_E4typeEOSN_DpOSO_.exit: ; preds = %7, %12
  %14 = phi ptr [ %11, %7 ], [ %13, %12 ]
  tail call void %14(ptr noundef nonnull align 8 dereferenceable(73) %5, ptr noundef nonnull align 8 dereferenceable(32) %1)
  ret void
}